; Function Attrs: mustprogress nounwind uwtable
define dso_local noundef zeroext i1 @_ZN4node13SocketAddress3NewEiPKcjPS0_(i32 noundef %family, ptr noundef %host, i32 noundef %port, ptr noundef %addr) local_unnamed_addr #3 align 2 {
entry:
  %address_.i = getelementptr inbounds i8, ptr %addr, i64 8
  switch i32 %family, label %do.body.i [
    i32 2, label %sw.bb.i
    i32 10, label %sw.bb1.i
  ]

sw.bb.i:                                          ; preds = %entry
  %call.i = tail call i32 @uv_ip4_addr(ptr noundef %host, i32 noundef %port, ptr noundef nonnull %address_.i) #21
  br label %_ZN4node13SocketAddress10ToSockAddrEiPKcjP16sockaddr_storage.exit

sw.bb1.i:                                         ; preds = %entry
  %call2.i = tail call i32 @uv_ip6_addr(ptr noundef %host, i32 noundef %port, ptr noundef nonnull %address_.i) #21
  br label %_ZN4node13SocketAddress10ToSockAddrEiPKcjP16sockaddr_storage.exit

do.body.i:                                        ; preds = %entry
  tail call void @_ZN4node6AssertERKNS_13AssertionInfoE(ptr noundef nonnull align 8 dereferenceable(24) @_ZZN4node13SocketAddress10ToSockAddrEiPKcjP16sockaddr_storageE4args) #21
  tail call void @abort() #22
  unreachable

_ZN4node13SocketAddress10ToSockAddrEiPKcjP16sockaddr_storage.exit: ; preds = %sw.bb.i, %sw.bb1.i
  %retval.0.in.i = phi i32 [ %call2.i, %sw.bb1.i ], [ %call.i, %sw.bb.i ]
  %retval.0.i = icmp eq i32 %retval.0.in.i, 0
  ret i1 %retval.0.i
}